; Function Attrs: mustprogress uwtable
define void @_ZNK22DDBalanceRegionHandler17openRegionCpuImplE26DdAllowBalanceRegionReopen(ptr nocapture noundef nonnull readonly align 8 dereferenceable(16) %0, i32 noundef %1) local_unnamed_addr #0 align 2 {
  %3 = getelementptr inbounds i8, ptr %0, i64 8
  %4 = load ptr, ptr %3, align 8
  %5 = getelementptr i8, ptr %4, i64 320
  %.val = load ptr, ptr %5, align 8
  %6 = getelementptr inbounds i8, ptr %.val, i64 14
  %7 = load i8, ptr %6, align 2
  %8 = trunc i8 %7 to i1
  br i1 %8, label %9, label %21

9:                                                ; preds = %2
  %10 = getelementptr i8, ptr %.val, i64 2120
  %.val.val = load ptr, ptr %10, align 8
  %11 = tail call { i32, i32 } asm sideeffect "rdtscp", "={ax},={dx},~{ecx},~{dirflag},~{fpsr},~{flags}"() #12, !srcloc !8
  %12 = extractvalue { i32, i32 } %11, 0
  %13 = extractvalue { i32, i32 } %11, 1
  %14 = zext i32 %12 to i64
  %15 = zext i32 %13 to i64
  %16 = shl nuw i64 %15, 32
  %17 = or disjoint i64 %16, %14
  %18 = getelementptr inbounds i8, ptr %.val.val, i64 8
  store i64 %17, ptr %18, align 8
  store i8 1, ptr %.val.val, align 8
  %19 = getelementptr inbounds i8, ptr %.val.val, i64 1
  store i8 1, ptr %19, align 1
  %20 = getelementptr inbounds i8, ptr %.val.val, i64 2
  store i8 0, ptr %20, align 2
  br label %21

21:                                               ; preds = %9, %2
  ret void
}